Certificate:
    Data:
        Version: 1 (0x0)
        Serial Number: 1 (0x1)
        Signature Algorithm: md5WithRSAEncryption
        Issuer: O=Sxip, OU=Test CA/emailAddress=sxip@sxip.com, L=Vancouver, ST=British Columbia, C=CA, CN=sxip.com
        Validity
            Not Before: Jul  4 21:12:35 2006 GMT
            Not After : Jul  4 21:12:35 2007 GMT
        Subject: C=CA, ST=British Columbia, O=Sxip, OU=Test Certificate, CN=test.sxip.com
        Subject Public Key Info:
            Public Key Algorithm: rsaEncryption
            RSA Public Key: (1024 bit)
                Modulus (1024 bit):
                    00:eb:31:c2:7b:8d:b0:9f:d8:46:89:fd:26:f6:17:
                    1a:be:7b:ca:f6:c0:f0:1d:7d:db:df:bc:6b:ee:9f:
                    27:d7:81:0d:0e:91:cc:8b:99:86:9f:47:2c:0e:80:
                    44:70:19:25:ab:64:29:2b:bb:50:bf:db:9f:b8:ec:
                    16:a2:55:65:64:80:52:b7:72:4b:a0:fe:b7:72:6d:
                    be:77:0e:44:be:88:6d:3f:a9:dd:c2:59:eb:63:18:
                    b1:ac:00:3c:28:1b:74:e8:1f:cc:74:97:52:72:7f:
                    18:d1:6d:48:98:02:ac:27:14:c9:9b:34:b6:12:a5:
                    8a:5d:58:e0:0e:52:83:63:37
                Exponent: 65537 (0x10001)
    Signature Algorithm: md5WithRSAEncryption
        01:17:c3:99:1e:94:af:24:e4:8a:20:b2:54:2e:53:c3:b4:c5:
        ce:34:72:e6:a3:d7:da:42:06:7b:6c:f9:b2:9f:c2:f2:f0:fc:
        d8:64:0d:b4:63:03:4b:82:1f:d2:4a:17:b4:4d:53:2b:cd:bf:
        23:3b:7f:37:9b:20:bd:4b:8d:6d:c6:65:15:80:80:e6:53:58:
        e5:e7:98:be:0c:18:9f:57:68:67:27:5f:94:92:4e:31:7b:5d:
        9e:e6:f5:3c:1b:17:4c:1d:f1:8f:55:5c:65:33:c1:74:5b:4b:
        ec:fc:39:d3:bb:1b:cb:30:01:06:5c:83:1d:64:29:3c:ec:57:
        81:b9
-----BEGIN CERTIFICATE-----
MIICaDCCAdECAQEwDQYJKoZIhvcNAQEEBQAwgY4xDTALBgNVBAoTBFN4aXAxEDAO
BgNVBAsTB1Rlc3QgQ0ExHDAaBgkqhkiG9w0BCQEWDXN4aXBAc3hpcC5jb20xEjAQ
BgNVBAcTCVZhbmNvdXZlcjEZMBcGA1UECBMQQnJpdGlzaCBDb2x1bWJpYTELMAkG
A1UEBhMCQ0ExETAPBgNVBAMTCHN4aXAuY29tMB4XDTA2MDcwNDIxMTIzNVoXDTA3
MDcwNDIxMTIzNVowajELMAkGA1UEBhMCQ0ExGTAXBgNVBAgTEEJyaXRpc2ggQ29s
dW1iaWExDTALBgNVBAoTBFN4aXAxGTAXBgNVBAsTEFRlc3QgQ2VydGlmaWNhdGUx
FjAUBgNVBAMTDXRlc3Quc3hpcC5jb20wgZ8wDQYJKoZIhvcNAQEBBQADgY0AMIGJ
AoGBAOsxwnuNsJ/YRon9JvYXGr57yvbA8B1929+8a+6fJ9eBDQ6RzIuZhp9HLA6A
RHAZJatkKSu7UL/bn7jsFqJVZWSAUrdyS6D+t3JtvncORL6IbT+p3cJZ62MYsawA
PCgbdOgfzHSXUnJ/GNFtSJgCrCcUyZs0thKlil1Y4A5Sg2M3AgMBAAEwDQYJKoZI
hvcNAQEEBQADgYEAARfDmR6UryTkiiCyVC5Tw7TFzjRy5qPX2kIGe2z5sp/C8vD8
2GQNtGMDS4If0koXtE1TK82/Izt/N5sgvUuNbcZlFYCA5lNY5eeYvgwYn1doZydf
lJJOMXtdnub1PBsXTB3xj1VcZTPBdFtL7Pw507sbyzABBlyDHWQpPOxXgbk=
-----END CERTIFICATE-----
